Certificate:
    Data:
        Version: 3 (0x2)
        Serial Number: 1 (0x1)
        Signature Algorithm: sha384WithRSAEncryption
        Issuer: CN=tiny-auth-test Ansible local PKI
        Validity
            Not Before: Dec 22 08:10:35 2020 GMT
            Not After : Dec 20 08:10:35 2030 GMT
        Subject: CN=localhost
        Subject Public Key Info:
            Public Key Algorithm: rsaEncryption
                RSA Public-Key: (4096 bit)
                Modulus:
                    00:b3:a7:11:a8:86:1d:ca:f0:aa:50:d9:06:6a:58:
                    9b:56:a6:9c:64:1d:72:c2:e4:17:98:99:46:17:9d:
                    5b:c8:4a:c1:6f:cc:c6:14:98:00:59:39:b3:70:87:
                    4c:bd:24:67:f3:a2:12:23:f6:0e:50:ed:bc:eb:4b:
                    9c:12:e6:76:b8:55:52:c2:66:a3:59:c6:d0:c3:d0:
                    7e:46:48:f5:e4:15:27:1d:e6:27:72:dc:a9:04:c1:
                    ce:6b:38:0d:9f:c8:a7:6e:83:a5:ed:0c:a8:fa:d8:
                    8e:b7:4d:72:53:e4:55:65:39:47:97:d3:df:f4:1e:
                    68:08:f8:8f:a5:bb:e2:b6:a1:70:4e:b4:14:05:08:
                    28:0b:33:5d:d3:dd:b3:c2:3f:41:c2:e6:99:60:4e:
                    d1:2a:82:50:75:26:4b:01:58:c0:85:af:b4:c0:e3:
                    85:ae:26:b4:59:6a:30:c2:13:02:a5:10:7c:d9:bb:
                    d3:b6:b7:07:03:f0:a0:e1:ad:62:ee:68:bb:d8:f1:
                    a3:3b:52:16:e3:34:39:5e:74:81:ea:aa:e6:55:47:
                    44:31:f8:61:7d:6e:72:c7:22:59:ba:9f:ea:69:1d:
                    e8:35:fb:ed:40:5f:b3:db:02:11:b6:8e:71:ee:be:
                    59:0d:9e:c2:f4:a5:3c:78:b2:aa:5b:05:05:26:30:
                    bb:e6:b0:da:b0:2f:da:91:cb:9a:c2:70:48:c3:c0:
                    ed:04:c6:4f:ba:e9:49:93:58:63:e2:45:1b:93:07:
                    a1:6c:9a:49:00:3a:a4:a4:e4:68:e8:4b:66:dd:ef:
                    e1:7b:b9:7d:d9:f4:a7:db:69:31:f8:e0:50:f4:37:
                    01:04:3a:fb:22:28:d8:bc:1c:3f:72:1f:54:4e:93:
                    17:b6:10:b6:1a:49:ee:06:47:b2:2f:b0:5d:50:c9:
                    fe:dc:2a:91:26:3c:b6:87:2f:08:b1:9c:85:f3:d8:
                    5f:7c:f9:09:87:fb:b3:98:f6:dd:0c:42:d3:4c:ea:
                    e1:fa:f7:b4:0f:1a:56:f6:0f:f3:4d:5d:63:4a:92:
                    43:13:6e:0a:71:5b:52:82:cd:f1:4f:5b:44:9c:84:
                    84:52:ec:aa:35:44:78:a9:9d:41:ad:04:4c:79:30:
                    5f:84:7d:14:80:80:c9:1e:fb:6f:0e:84:f6:b5:fb:
                    b4:6a:c7:90:f9:f4:18:15:74:1b:77:94:ad:3a:45:
                    30:f7:46:88:5d:76:41:c9:7a:87:07:da:ce:5c:b5:
                    3d:a5:88:31:3a:0f:a0:25:54:a8:a1:e6:51:6d:db:
                    da:d6:d8:b9:7b:cf:29:98:f4:a1:85:b5:31:2e:17:
                    4d:4d:4a:50:ca:85:b1:e1:c4:73:66:8a:9f:d2:b4:
                    03:cc:87
                Exponent: 65537 (0x10001)
        X509v3 extensions:
            X509v3 Basic Constraints: 
                CA:FALSE
            X509v3 Subject Key Identifier: 
                16:78:8D:7B:AE:95:44:6C:3F:B4:CC:8E:E0:8C:53:E5:E8:AA:C5:E9
            X509v3 Authority Key Identifier: 
                keyid:DA:3C:E9:B1:A8:1F:A4:ED:CB:AF:1D:59:40:FB:27:0A:27:8E:35:06
                DirName:/CN=tiny-auth-test Ansible local PKI
                serial:3F:35:5B:3C:E7:8D:93:10:51:5E:6F:13:E9:52:7A:48:3B:50:59:48

            X509v3 Extended Key Usage: 
                TLS Web Server Authentication
            X509v3 Key Usage: 
                Digital Signature, Key Encipherment
            X509v3 Subject Alternative Name: 
                DNS:localhost, IP Address:127.0.0.1, IP Address:0:0:0:0:0:0:0:1
    Signature Algorithm: sha384WithRSAEncryption
         cf:2c:10:a4:bf:3b:f9:54:7a:72:25:43:c2:b6:29:c7:e2:4c:
         e0:e3:92:f4:a4:5c:cd:ff:ce:66:ab:f2:9a:96:f7:97:80:a6:
         1f:a0:d3:b6:56:27:2e:fa:3c:d1:08:4e:d1:a8:b2:cc:4b:36:
         60:44:a2:fa:2e:c6:9e:b1:e7:06:92:e6:2a:06:43:d1:b1:66:
         42:21:4e:00:18:8b:7e:42:a7:f3:48:0c:c3:e5:c2:be:67:83:
         3d:fd:87:8c:bf:73:89:dc:10:d5:5a:d7:b1:4a:b1:7d:97:5b:
         a0:e8:27:a4:5a:68:81:b5:2e:0f:78:71:f7:66:ad:ad:d9:ce:
         36:f0:f0:9f:bb:64:59:df:1a:a8:50:6c:28:a1:58:5b:20:ff:
         ab:e3:91:69:d0:e8:35:9e:5e:54:29:55:86:26:7b:47:46:ac:
         95:88:02:a2:07:a0:8c:16:2a:e4:2f:73:6a:be:17:2d:ca:2c:
         62:81:a5:7a:72:fa:90:ac:04:2d:b9:56:b6:18:64:c5:e3:05:
         4e:01:3b:7f:43:f6:2d:31:ef:db:4c:87:0d:ff:85:d0:23:42:
         14:05:4d:21:50:5a:8c:3b:4b:d0:1e:73:ea:fb:4b:27:ad:b8:
         40:e4:00:f7:b2:15:6c:ca:a0:7e:38:36:5c:7c:35:6e:35:a5:
         f0:4f:d4:f8:eb:f6:5e:b6:68:e4:d6:34:6c:12:80:dd:19:24:
         bc:61:21:2a:b6:66:9b:e4:19:5c:df:22:99:86:81:b4:70:87:
         2a:25:ad:c5:dc:81:74:d3:75:97:5d:3e:dd:1a:d6:01:e5:ed:
         e7:4d:61:a6:5b:8b:48:a2:2d:a9:de:a8:2d:15:6b:3e:62:02:
         df:01:60:f2:3b:60:84:d7:a3:92:20:c0:09:0d:e9:83:de:4f:
         69:ba:6a:42:0b:1b:f1:82:39:4f:e3:7e:19:e6:47:af:1e:8f:
         2d:16:bf:21:38:1c:59:ad:d7:78:db:48:f0:be:1e:e8:e9:ba:
         8d:ee:c0:54:01:3f:d2:e7:25:a1:52:53:bb:62:fd:45:15:38:
         50:b0:8c:1f:46:f7:52:48:06:d8:51:6b:f2:2d:4b:65:26:33:
         24:a5:57:92:b1:03:b0:8c:cd:ff:7c:0f:bd:95:a9:5e:4d:f0:
         31:85:75:5b:ed:17:15:e7:c9:a3:25:3d:5b:16:5f:1f:05:6a:
         4d:bb:5e:f1:ae:e1:3b:07:a9:4e:e3:d8:30:a7:9c:6b:64:86:
         8c:e8:3e:e9:54:47:48:ab:c3:b2:10:97:c2:8b:5d:7b:f0:40:
         83:42:29:41:06:b4:4f:e2:e5:48:4b:d5:32:d7:11:e7:ce:c0:
         cf:8c:03:05:16:fc:55:3e
-----BEGIN CERTIFICATE-----
MIIFoDCCA4igAwIBAgIBATANBgkqhkiG9w0BAQwFADArMSkwJwYDVQQDDCB0aW55
LWF1dGgtdGVzdCBBbnNpYmxlIGxvY2FsIFBLSTAeFw0yMDEyMjIwODEwMzVaFw0z
MDEyMjAwODEwMzVaMBQxEjAQBgNVBAMMCWxvY2FsaG9zdDCCAiIwDQYJKoZIhvcN
AQEBBQADggIPADCCAgoCggIBALOnEaiGHcrwqlDZBmpYm1amnGQdcsLkF5iZRhed
W8hKwW/MxhSYAFk5s3CHTL0kZ/OiEiP2DlDtvOtLnBLmdrhVUsJmo1nG0MPQfkZI
9eQVJx3mJ3LcqQTBzms4DZ/Ip26Dpe0MqPrYjrdNclPkVWU5R5fT3/QeaAj4j6W7
4rahcE60FAUIKAszXdPds8I/QcLmmWBO0SqCUHUmSwFYwIWvtMDjha4mtFlqMMIT
AqUQfNm707a3BwPwoOGtYu5ou9jxoztSFuM0OV50geqq5lVHRDH4YX1ucsciWbqf
6mkd6DX77UBfs9sCEbaOce6+WQ2ewvSlPHiyqlsFBSYwu+aw2rAv2pHLmsJwSMPA
7QTGT7rpSZNYY+JFG5MHoWyaSQA6pKTkaOhLZt3v4Xu5fdn0p9tpMfjgUPQ3AQQ6
+yIo2LwcP3IfVE6TF7YQthpJ7gZHsi+wXVDJ/twqkSY8tocvCLGchfPYX3z5CYf7
s5j23QxC00zq4fr3tA8aVvYP801dY0qSQxNuCnFbUoLN8U9bRJyEhFLsqjVEeKmd
Qa0ETHkwX4R9FICAyR77bw6E9rX7tGrHkPn0GBV0G3eUrTpFMPdGiF12Qcl6hwfa
zly1PaWIMToPoCVUqKHmUW3b2tbYuXvPKZj0oYW1MS4XTU1KUMqFseHEc2aKn9K0
A8yHAgMBAAGjgeUwgeIwCQYDVR0TBAIwADAdBgNVHQ4EFgQUFniNe66VRGw/tMyO
4IxT5eiqxekwZgYDVR0jBF8wXYAU2jzpsagfpO3Lrx1ZQPsnCieONQahL6QtMCsx
KTAnBgNVBAMMIHRpbnktYXV0aC10ZXN0IEFuc2libGUgbG9jYWwgUEtJghQ/NVs8
542TEFFebxPpUnpIO1BZSDATBgNVHSUEDDAKBggrBgEFBQcDATALBgNVHQ8EBAMC
BaAwLAYDVR0RBCUwI4IJbG9jYWxob3N0hwR/AAABhxAAAAAAAAAAAAAAAAAAAAAB
MA0GCSqGSIb3DQEBDAUAA4ICAQDPLBCkvzv5VHpyJUPCtinH4kzg45L0pFzN/85m
q/KalveXgKYfoNO2Vicu+jzRCE7RqLLMSzZgRKL6LsaesecGkuYqBkPRsWZCIU4A
GIt+QqfzSAzD5cK+Z4M9/YeMv3OJ3BDVWtexSrF9l1ug6CekWmiBtS4PeHH3Zq2t
2c428PCfu2RZ3xqoUGwooVhbIP+r45Fp0Og1nl5UKVWGJntHRqyViAKiB6CMFirk
L3NqvhctyixigaV6cvqQrAQtuVa2GGTF4wVOATt/Q/YtMe/bTIcN/4XQI0IUBU0h
UFqMO0vQHnPq+0snrbhA5AD3shVsyqB+ODZcfDVuNaXwT9T46/Zetmjk1jRsEoDd
GSS8YSEqtmab5Blc3yKZhoG0cIcqJa3F3IF003WXXT7dGtYB5e3nTWGmW4tIoi2p
3qgtFWs+YgLfAWDyO2CE16OSIMAJDemD3k9pumpCCxvxgjlP434Z5kevHo8tFr8h
OBxZrdd420jwvh7o6bqN7sBUAT/S5yWhUlO7Yv1FFThQsIwfRvdSSAbYUWvyLUtl
JjMkpVeSsQOwjM3/fA+9laleTfAxhXVb7RcV58mjJT1bFl8fBWpNu17xruE7B6lO
49gwp5xrZIaM6D7pVEdIq8OyEJfCi1178ECDQilBBrRP4uVIS9Uy1xHnzsDPjAMF
FvxVPg==
-----END CERTIFICATE-----
-----BEGIN CERTIFICATE-----
MIIFijCCA3KgAwIBAgIUPzVbPOeNkxBRXm8T6VJ6SDtQWUgwDQYJKoZIhvcNAQEM
BQAwKzEpMCcGA1UEAwwgdGlueS1hdXRoLXRlc3QgQW5zaWJsZSBsb2NhbCBQS0kw
HhcNMjAxMjIyMDgxMDMyWhcNMzAxMjIwMDgxMDMyWjArMSkwJwYDVQQDDCB0aW55
LWF1dGgtdGVzdCBBbnNpYmxlIGxvY2FsIFBLSTCCAiIwDQYJKoZIhvcNAQEBBQAD
ggIPADCCAgoCggIBANcOKtUOP7LIF8WAFAqUhLIyzJ3u4boDksRVBORxAa/eJhVY
w8cV04NQe/s/2U3Fd8iNGda8nPhg09ESbg4KbvjgI1sCeySrcOSTRd+RJVA+hcMD
Ilggb/vITSoFy0F11jU2syjSdry9TYd4LZz2Kz+HPYauGLLlnxPg/9nUHo4nG1gT
fuRvjhZkRjKNCUb8Qh0vj3ou0b8kszeqL8ysar1XyNcRtD9tzP9MDdM+QkE9M2g4
GiLjrOq1axTg/AqtQ/btLv+uySqBhbGML1QtW6LE5bBDCZMnNTtWJvS8AkHnMCmH
5bJ2VEg1clT7JXcNAx1ZKG//mDI02e4gNrP5SJ0DqR/cq8MLlrmaaOutXYdRYtIw
+IHFSlZJB6c/NSiCyAs0QBhgVDAApiNcKpWw0ISY+6ilivjLZnDspMXpcIF5JaAB
q2IeAW7dFa1/082R+ZMASZa/09yCjM8u9x4HeMBQUQbVv54ZiM2RmWqUrxplZBwU
fz8vGAXqOhzbt8w/Ylf1mex9+ABEkkUlDstUjPahlevdms7Qr8EG2UVpr7ljHRd8
6p2HZM70PXwatvkk0jvWFoe8zFAldLxunDr+MRIK0FYXdlnRQp2MbNV2xkFuGFgN
TjRdegtiZaMuX8DG1ltfvt4E/8jD6hbMomXi9yKJtbuhyZl6vs3bVcVahPabAgMB
AAGjgaUwgaIwHQYDVR0OBBYEFNo86bGoH6Tty68dWUD7JwonjjUGMGYGA1UdIwRf
MF2AFNo86bGoH6Tty68dWUD7JwonjjUGoS+kLTArMSkwJwYDVQQDDCB0aW55LWF1
dGgtdGVzdCBBbnNpYmxlIGxvY2FsIFBLSYIUPzVbPOeNkxBRXm8T6VJ6SDtQWUgw
DAYDVR0TBAUwAwEB/zALBgNVHQ8EBAMCAQYwDQYJKoZIhvcNAQEMBQADggIBAAVV
xstRzDryC9d/ac3bubbahDpN97ENcYtrAPs+AdFsJZOYnUc1BI/XzQYWggcMXqhM
c6PIwVEVbUQ3sBntS4g+AbSSK5yCMn7szrn5EPxoPALJJh2ODdSXe67nPDT8XfDQ
mZQQfWRap50IxzUpZzrdiFvpadIBsGOMDwXcwEqJSEltZpw2kYBYMaKtxcmMwe9L
LTmlUik1QwN0AupaLAj1iuM0P0PB2Jvx96Hq7U/LtIoKHsedzVtz7/93zGeVQhcu
sCLbc8euyW8/KDowizbfrMylWs2ggMvBWziVGIxX1e+rp/ufIS/Pif2l5niyFS+N
n9S6nfvbSS5e55deyLC0c07Qd88rQwNx0v52lCn+BTbS4qLXdLE0armvWvEIG2wX
rlh0ktf3J1bDCHQf/DnAcSQzYGFAOESPUWqJCo9rck312nyKGDo9BCMxDerh69Kk
9e0u0c3s4PkB4OcjYvBHX0VkGk6FubYRBNISmvZ1omKX2fvxnYE7IeFMeAttESRN
4Gny8AB1bD61FiOZ+l9IUBBS1nGH19V7kDmPokFXNgAZ7Q/D3KS1tAW70KvNUF4R
G2hU12lrp4Vyi3Fs3Y/r31dkKbg4AKgerxjAADxB9JnmbumxKlTMRVB37y1iLRqb
dlfUrU0St08E3I3KwTePomRF3Z4YFSYqbTjx886l
-----END CERTIFICATE-----
