Certificate:
    Data:
        Version: 3 (0x2)
        Serial Number: 1 (0x1)
        Signature Algorithm: sha384WithRSAEncryption
        Issuer: CN=tiny-auth-hack Ansible local PKI
        Validity
            Not Before: May 30 12:39:46 2020 GMT
            Not After : May 28 12:39:46 2030 GMT
        Subject: CN=localhost
        Subject Public Key Info:
            Public Key Algorithm: rsaEncryption
                RSA Public-Key: (4096 bit)
                Modulus:
                    00:bd:45:63:fe:97:42:cf:b9:0f:2d:3f:ca:51:a2:
                    d3:e1:54:21:89:fc:6b:58:90:2b:00:0a:80:e0:52:
                    dd:f3:2b:db:7b:89:5f:9f:28:c8:85:57:ec:d9:da:
                    94:00:74:af:00:24:66:e7:85:86:bb:4a:94:f9:20:
                    77:d1:6c:eb:46:35:5e:6d:72:11:63:6c:19:a1:fe:
                    1d:3d:26:bb:f1:e1:91:45:99:98:90:b0:56:4e:89:
                    0b:bc:c8:00:8a:68:e3:f6:c6:79:58:c4:b2:3f:6e:
                    8b:7d:de:2a:1a:d7:ff:24:48:1f:cd:79:89:dc:d9:
                    72:a0:2b:21:d8:36:d4:ce:5a:87:11:1a:25:b1:76:
                    f3:85:14:18:a1:ad:ca:8a:9d:4f:4a:0b:bf:ad:66:
                    b1:5e:fa:59:bd:81:f3:79:01:0e:97:77:c6:7c:fc:
                    5a:2d:db:e7:6e:a8:b2:a0:b8:51:a0:80:bf:62:e6:
                    d3:ad:28:18:ee:d3:b8:1c:40:2d:25:42:7e:44:3d:
                    bb:ed:39:79:2a:ed:61:a1:b6:92:bb:33:3c:54:a6:
                    0e:69:a1:fd:9d:d1:68:8b:49:56:cb:57:be:b8:c3:
                    59:09:6c:58:c6:71:48:de:bd:dc:69:12:92:07:a1:
                    3d:96:e5:7c:3a:fb:c4:c1:4f:1a:77:92:8d:8c:1d:
                    bc:1c:42:83:04:f2:4b:2a:a8:25:0b:cd:d7:f9:0b:
                    70:fa:54:6e:b0:35:3c:f9:f1:fd:ce:79:d6:6f:e9:
                    17:37:eb:a5:81:06:63:90:2e:f3:1f:a8:ed:8d:fe:
                    0b:c7:52:d5:e8:1f:55:cf:39:7e:81:17:27:d2:26:
                    78:01:9a:06:a7:44:52:65:97:c9:e1:06:78:f1:83:
                    32:08:f3:ed:02:a4:8d:ee:a2:c2:a0:ef:38:57:c6:
                    2f:55:67:83:db:7e:0b:63:8c:0a:71:f8:a7:25:4e:
                    bf:33:c4:67:96:5b:1a:78:a4:0a:f8:70:1c:fd:80:
                    ec:dd:8f:89:93:f0:ed:89:1a:46:47:48:c2:42:67:
                    14:24:4e:33:bf:5f:a2:97:a1:8d:f9:e9:be:6d:ad:
                    b7:f4:1c:d6:c3:b5:6e:df:ba:66:7e:64:20:02:03:
                    f3:48:24:98:9f:ea:2b:45:71:b6:9b:ec:e1:d7:3f:
                    c5:c9:61:04:d1:e7:d2:3f:ef:79:f7:46:2c:28:84:
                    23:2f:3d:17:50:66:9c:b4:2f:55:82:7f:1e:38:e0:
                    e0:a9:b5:de:32:4e:a9:b4:34:3b:66:aa:fe:49:82:
                    16:22:61:51:6c:cf:3e:40:37:1f:7b:e0:e6:2c:ca:
                    09:2b:8c:cf:29:61:40:30:fc:71:62:94:14:13:75:
                    85:90:e3
                Exponent: 65537 (0x10001)
        X509v3 extensions:
            X509v3 Basic Constraints: 
                CA:FALSE
            X509v3 Subject Key Identifier: 
                0F:B4:7C:BB:09:04:46:2E:75:2A:88:C9:24:B2:54:6D:7C:EE:28:AE
            X509v3 Authority Key Identifier: 
                keyid:6C:EB:C7:AA:1E:DF:AC:1D:C3:0B:DD:15:94:D1:98:AC:2B:7B:0C:2A
                DirName:/CN=tiny-auth-hack Ansible local PKI
                serial:7D:48:C2:A1:20:DD:19:79:EE:9A:E9:0C:73:50:BD:9C:41:27:61:9C

            X509v3 Extended Key Usage: 
                TLS Web Server Authentication
            X509v3 Key Usage: 
                Digital Signature, Key Encipherment
            X509v3 Subject Alternative Name: 
                DNS:localhost, IP Address:127.0.0.1, IP Address:0:0:0:0:0:0:0:1
    Signature Algorithm: sha384WithRSAEncryption
         67:43:88:5f:a6:75:88:8a:d3:60:4f:ef:5e:f1:d9:4d:9b:49:
         47:19:cf:32:0d:5d:10:e6:e3:5e:cc:f3:80:10:6e:ee:46:50:
         8c:ea:7c:cc:7e:0b:e4:6a:f9:f9:1c:0b:e6:23:f8:43:25:01:
         90:88:6f:40:55:64:9e:d8:d9:c6:3d:5d:0e:d6:ed:f1:27:4c:
         e0:94:51:ba:91:e7:19:f7:0a:46:6e:90:82:47:fc:5f:fe:db:
         ec:21:b2:c9:98:5c:59:47:3a:4f:2b:17:7c:c7:0d:78:71:26:
         2c:e5:c7:44:70:73:85:b3:9f:1f:b9:4c:56:7a:d6:94:3f:ec:
         2b:4f:13:86:47:e6:3c:7e:b9:4e:e5:30:b0:2a:f7:44:e4:c1:
         59:92:83:3a:33:54:75:27:0e:e2:67:14:84:84:c9:c1:f0:d4:
         66:55:0e:b2:ec:d7:b5:27:5a:f8:7d:f4:28:77:1a:68:72:7d:
         54:0d:54:9b:e6:3d:30:a4:63:3e:1b:02:ef:db:db:d4:6c:f2:
         4d:80:f9:47:66:58:ce:13:e9:08:24:b1:23:ef:dc:5c:78:16:
         1c:18:fb:35:45:d1:81:06:d5:1f:6f:41:25:d9:81:27:a7:09:
         2b:d2:04:06:3b:31:ac:5f:d2:8b:37:1d:0c:dd:49:3e:c2:30:
         27:3f:d7:a0:8a:9c:85:df:ae:41:f6:e7:d8:ec:66:9a:66:6b:
         01:dc:ca:1e:c3:dd:a9:79:68:24:12:2a:c0:1f:48:1b:d5:b3:
         34:bd:c3:ad:43:10:a3:cf:b5:d2:75:53:0c:d8:59:d4:00:82:
         35:a0:4f:1d:35:b2:1d:a6:31:a0:6e:78:0a:07:cc:71:f1:73:
         cd:fc:57:6c:32:64:08:07:95:fe:6b:1b:df:e0:d9:04:6f:da:
         9d:b7:f4:7b:32:40:b8:71:24:0f:b3:de:8d:c3:c4:81:c6:f6:
         b6:fe:bb:d6:f1:c3:77:bc:e9:58:29:f7:c7:40:a8:4c:51:3a:
         a7:83:11:77:5c:26:1d:10:7e:d8:cd:6b:af:da:86:ef:77:8c:
         3e:d0:04:63:c4:be:07:80:d7:9f:a7:f3:5b:c8:e3:ac:0d:0c:
         d2:83:f6:1c:f6:5d:a4:1c:14:53:9c:11:22:53:c5:73:35:6f:
         3a:19:ee:3d:0e:b6:13:39:c0:59:03:28:7f:51:e4:0c:6d:e2:
         86:f5:bf:1e:0d:da:4f:09:4a:79:e4:d5:31:12:a6:10:5e:7d:
         7a:16:f9:f7:58:e8:93:df:42:98:4b:8e:6e:6f:8d:9e:1f:e7:
         cc:0c:51:94:7b:70:fb:d7:16:3d:fb:a4:93:b1:e3:d3:e9:d0:
         1b:cb:02:4a:8d:68:6e:4d
-----BEGIN CERTIFICATE-----
MIIFoDCCA4igAwIBAgIBATANBgkqhkiG9w0BAQwFADArMSkwJwYDVQQDDCB0aW55
LWF1dGgtaGFjayBBbnNpYmxlIGxvY2FsIFBLSTAeFw0yMDA1MzAxMjM5NDZaFw0z
MDA1MjgxMjM5NDZaMBQxEjAQBgNVBAMMCWxvY2FsaG9zdDCCAiIwDQYJKoZIhvcN
AQEBBQADggIPADCCAgoCggIBAL1FY/6XQs+5Dy0/ylGi0+FUIYn8a1iQKwAKgOBS
3fMr23uJX58oyIVX7NnalAB0rwAkZueFhrtKlPkgd9Fs60Y1Xm1yEWNsGaH+HT0m
u/HhkUWZmJCwVk6JC7zIAIpo4/bGeVjEsj9ui33eKhrX/yRIH815idzZcqArIdg2
1M5ahxEaJbF284UUGKGtyoqdT0oLv61msV76Wb2B83kBDpd3xnz8Wi3b526osqC4
UaCAv2Lm060oGO7TuBxALSVCfkQ9u+05eSrtYaG2krszPFSmDmmh/Z3RaItJVstX
vrjDWQlsWMZxSN693GkSkgehPZblfDr7xMFPGneSjYwdvBxCgwTySyqoJQvN1/kL
cPpUbrA1PPnx/c551m/pFzfrpYEGY5Au8x+o7Y3+C8dS1egfVc85foEXJ9ImeAGa
BqdEUmWXyeEGePGDMgjz7QKkje6iwqDvOFfGL1Vng9t+C2OMCnH4pyVOvzPEZ5Zb
GnikCvhwHP2A7N2PiZPw7YkaRkdIwkJnFCROM79fopehjfnpvm2tt/Qc1sO1bt+6
Zn5kIAID80gkmJ/qK0Vxtpvs4dc/xclhBNHn0j/vefdGLCiEIy89F1BmnLQvVYJ/
Hjjg4Km13jJOqbQ0O2aq/kmCFiJhUWzPPkA3H3vg5izKCSuMzylhQDD8cWKUFBN1
hZDjAgMBAAGjgeUwgeIwCQYDVR0TBAIwADAdBgNVHQ4EFgQUD7R8uwkERi51KojJ
JLJUbXzuKK4wZgYDVR0jBF8wXYAUbOvHqh7frB3DC90VlNGYrCt7DCqhL6QtMCsx
KTAnBgNVBAMMIHRpbnktYXV0aC1oYWNrIEFuc2libGUgbG9jYWwgUEtJghR9SMKh
IN0Zee6a6QxzUL2cQSdhnDATBgNVHSUEDDAKBggrBgEFBQcDATALBgNVHQ8EBAMC
BaAwLAYDVR0RBCUwI4IJbG9jYWxob3N0hwR/AAABhxAAAAAAAAAAAAAAAAAAAAAB
MA0GCSqGSIb3DQEBDAUAA4ICAQBnQ4hfpnWIitNgT+9e8dlNm0lHGc8yDV0Q5uNe
zPOAEG7uRlCM6nzMfgvkavn5HAvmI/hDJQGQiG9AVWSe2NnGPV0O1u3xJ0zglFG6
kecZ9wpGbpCCR/xf/tvsIbLJmFxZRzpPKxd8xw14cSYs5cdEcHOFs58fuUxWetaU
P+wrTxOGR+Y8frlO5TCwKvdE5MFZkoM6M1R1Jw7iZxSEhMnB8NRmVQ6y7Ne1J1r4
ffQodxpocn1UDVSb5j0wpGM+GwLv29vUbPJNgPlHZljOE+kIJLEj79xceBYcGPs1
RdGBBtUfb0El2YEnpwkr0gQGOzGsX9KLNx0M3Uk+wjAnP9egipyF365B9ufY7Gaa
ZmsB3Moew92peWgkEirAH0gb1bM0vcOtQxCjz7XSdVMM2FnUAII1oE8dNbIdpjGg
bngKB8xx8XPN/FdsMmQIB5X+axvf4NkEb9qdt/R7MkC4cSQPs96Nw8SBxva2/rvW
8cN3vOlYKffHQKhMUTqngxF3XCYdEH7YzWuv2obvd4w+0ARjxL4HgNefp/NbyOOs
DQzSg/Yc9l2kHBRTnBEiU8VzNW86Ge49DrYTOcBZAyh/UeQMbeKG9b8eDdpPCUp5
5NUxEqYQXn16Fvn3WOiT30KYS45ub42eH+fMDFGUe3D71xY9+6STsePT6dAbywJK
jWhuTQ==
-----END CERTIFICATE-----
