Certificate:
    Data:
        Version: 3 (0x2)
        Serial Number: 2 (0x2)
        Signature Algorithm: sha384WithRSAEncryption
        Issuer: CN=tiny-auth-hack Ansible local PKI
        Validity
            Not Before: May 30 12:39:56 2020 GMT
            Not After : May 28 12:39:56 2030 GMT
        Subject: CN=localhost-client
        Subject Public Key Info:
            Public Key Algorithm: rsaEncryption
                RSA Public-Key: (4096 bit)
                Modulus:
                    00:ba:69:27:93:c4:29:79:e3:eb:cb:57:5a:ce:fb:
                    12:21:99:2d:8a:40:41:0d:71:75:bc:3d:ae:0d:15:
                    11:b8:6e:98:c1:5f:97:3e:39:1a:3c:d6:2f:ed:70:
                    0c:00:b3:e0:0f:0b:57:de:a0:17:6a:e0:2d:fb:e9:
                    a1:b8:57:a4:71:31:bc:9e:43:f2:e4:b1:5f:8a:fd:
                    fc:d8:60:28:d9:cd:84:a1:aa:d1:8e:d6:5c:ae:cd:
                    cb:aa:1c:e0:c2:e5:ad:f0:1e:50:06:70:77:25:72:
                    8b:52:17:2d:9d:a3:39:09:f0:f0:a6:19:c4:11:51:
                    54:7e:51:cb:42:49:a9:92:56:56:81:11:ba:f7:c8:
                    98:71:55:fd:d7:2f:9b:a2:67:69:63:2d:60:6c:47:
                    6b:23:a2:b3:b0:4d:08:37:ee:2d:79:48:5b:f0:6d:
                    2e:9e:83:e5:49:ba:b2:d4:86:5d:de:2b:77:57:6b:
                    4f:27:1b:bc:6e:cd:bd:f3:f7:88:67:4c:7c:8e:3d:
                    a8:b2:71:52:a9:a3:20:25:87:b5:e9:69:ce:ce:08:
                    6d:33:e6:01:57:4d:20:09:2e:ee:fe:10:2b:5e:65:
                    b2:8b:66:a6:a5:d9:5d:5b:87:9a:1d:4e:fd:fd:c9:
                    18:7c:95:ac:7c:9b:82:dc:27:6a:e1:1a:03:74:cd:
                    f0:20:8c:6b:e1:90:0a:fa:2a:4d:be:d6:da:8d:c2:
                    bf:cd:08:ed:3b:5a:77:0a:60:80:6f:25:1b:4b:ac:
                    8c:ca:94:07:3a:66:42:43:d9:87:58:19:bf:7c:5e:
                    5e:5f:7c:ae:7f:68:f5:c3:d3:08:48:26:3c:a5:2d:
                    ee:c0:cd:14:a6:ea:1b:7a:c0:33:fb:ab:70:3b:53:
                    b1:a6:ab:f1:5c:99:39:b5:ad:db:31:6e:ed:2f:09:
                    49:b4:a1:21:0d:15:c5:85:2f:95:0b:c3:ba:4a:2c:
                    07:d3:86:ad:fa:00:e5:b7:bf:c7:36:cc:2b:b7:75:
                    e9:3c:b3:c9:db:16:23:dc:9f:35:a3:dd:69:e3:e5:
                    b0:44:9e:bd:b4:2c:1a:ec:a8:89:13:52:19:1f:69:
                    ca:3b:a3:b5:b1:93:88:57:34:b4:a3:df:49:ed:bf:
                    1e:d6:70:04:ce:84:4d:e7:aa:16:57:44:04:9b:ce:
                    27:23:2a:c2:d2:85:21:d1:e4:a0:9b:e8:eb:41:23:
                    44:fe:85:9c:c8:ed:cc:00:8c:80:8c:72:dc:d7:60:
                    93:f6:5a:78:c9:59:ae:8d:35:34:2c:fa:c1:68:cd:
                    fd:d8:cf:19:d8:f6:91:f9:a0:c6:05:09:31:99:3c:
                    c5:da:ae:ea:b4:12:22:8e:cc:6b:ff:a5:c4:e2:99:
                    be:78:e3
                Exponent: 65537 (0x10001)
        X509v3 extensions:
            X509v3 Basic Constraints: 
                CA:FALSE
            X509v3 Subject Key Identifier: 
                FC:F8:DA:7E:E9:00:FA:FB:91:1F:F5:9D:F7:70:80:49:8E:4A:C5:04
            X509v3 Authority Key Identifier: 
                keyid:6C:EB:C7:AA:1E:DF:AC:1D:C3:0B:DD:15:94:D1:98:AC:2B:7B:0C:2A
                DirName:/CN=tiny-auth-hack Ansible local PKI
                serial:7D:48:C2:A1:20:DD:19:79:EE:9A:E9:0C:73:50:BD:9C:41:27:61:9C

            X509v3 Extended Key Usage: 
                TLS Web Client Authentication
            X509v3 Key Usage: 
                Digital Signature
            X509v3 Subject Alternative Name: 
                DNS:localhost, IP Address:127.0.0.1, IP Address:0:0:0:0:0:0:0:1
    Signature Algorithm: sha384WithRSAEncryption
         64:2c:79:b9:ac:e7:7e:0f:49:6e:fe:83:b4:c3:51:ae:66:01:
         e1:29:6d:66:c0:77:e6:d0:ea:c7:30:1d:da:07:f4:1a:4f:9d:
         38:c1:44:9c:ab:9b:01:26:e4:c9:28:2d:3b:93:a4:28:d1:1b:
         e8:3e:2a:da:ab:a9:53:4e:61:10:f6:c0:e1:b4:2a:6f:b5:ef:
         d8:7e:8c:e7:f6:45:28:32:50:4f:ca:2b:9c:9f:b8:f5:bb:5f:
         38:a0:41:3b:76:70:c5:c3:96:cf:00:d0:e2:e9:1c:64:a8:e2:
         e1:0a:a2:03:ab:1d:ab:21:dd:07:cc:f7:5d:00:53:0f:7a:c7:
         d3:94:fc:4f:e4:1d:27:09:d5:3d:ee:7e:bb:19:cb:de:38:41:
         58:82:e4:d2:e1:8c:63:30:79:16:da:aa:6a:60:5c:e1:28:bc:
         19:6a:77:80:98:3c:33:9f:0d:5f:c7:16:92:05:df:0a:52:97:
         ba:33:c4:d5:a2:fd:c3:55:a3:86:86:05:70:e1:a1:1a:bd:94:
         9d:04:6a:e2:e8:ed:aa:47:4e:98:1b:a3:57:1c:5d:f6:18:a0:
         71:1e:02:70:c5:ec:ab:3f:0d:99:ea:1a:01:5a:8b:e4:03:81:
         b5:77:fb:bf:b8:4f:5b:19:9a:7a:72:98:d1:55:c0:d2:d3:ff:
         94:bb:41:2d:bc:3e:6d:0a:01:15:78:4e:50:70:1d:fc:19:1d:
         02:19:3c:bc:23:b7:cd:11:f8:bd:75:fd:cb:c2:c8:71:bc:9e:
         61:c2:6c:09:0f:a9:49:34:4a:97:6c:11:cb:45:96:01:be:d5:
         37:78:10:70:9a:b1:1c:35:d4:1f:9c:5f:76:5f:c9:9a:c7:1a:
         8c:8c:3a:3b:8e:6d:7d:52:3c:7a:2c:de:1c:8f:de:ce:e1:7c:
         15:ec:cb:14:78:5f:a9:57:c5:e7:3c:c9:bf:0b:9d:6f:01:f5:
         d0:a8:24:87:08:7f:98:16:40:27:3e:fb:2e:fa:37:d2:c0:b1:
         53:3b:67:c9:e7:c8:38:e1:77:dd:b8:f7:18:af:37:6c:82:c0:
         83:c5:d1:ff:f8:74:db:61:ed:35:82:1f:51:3c:6f:63:44:f4:
         61:6e:58:ed:d9:3b:23:67:8b:93:26:4d:c0:34:43:5a:e5:eb:
         a1:34:83:92:38:97:29:2d:99:61:87:b4:e2:b7:b1:e9:9e:bc:
         f6:26:e6:b8:e3:63:56:bc:7b:48:df:08:f8:10:f1:9b:74:cd:
         06:09:dd:d3:b8:f9:a4:81:ae:63:03:4d:82:de:91:98:e4:fa:
         eb:b3:0e:35:a8:87:e6:87:3d:65:b5:5e:5e:29:65:45:68:ae:
         6e:cf:b5:48:90:7c:3b:e5
-----BEGIN CERTIFICATE-----
MIIFpzCCA4+gAwIBAgIBAjANBgkqhkiG9w0BAQwFADArMSkwJwYDVQQDDCB0aW55
LWF1dGgtaGFjayBBbnNpYmxlIGxvY2FsIFBLSTAeFw0yMDA1MzAxMjM5NTZaFw0z
MDA1MjgxMjM5NTZaMBsxGTAXBgNVBAMMEGxvY2FsaG9zdC1jbGllbnQwggIiMA0G
CSqGSIb3DQEBAQUAA4ICDwAwggIKAoICAQC6aSeTxCl54+vLV1rO+xIhmS2KQEEN
cXW8Pa4NFRG4bpjBX5c+ORo81i/tcAwAs+APC1feoBdq4C376aG4V6RxMbyeQ/Lk
sV+K/fzYYCjZzYShqtGO1lyuzcuqHODC5a3wHlAGcHclcotSFy2dozkJ8PCmGcQR
UVR+UctCSamSVlaBEbr3yJhxVf3XL5uiZ2ljLWBsR2sjorOwTQg37i15SFvwbS6e
g+VJurLUhl3eK3dXa08nG7xuzb3z94hnTHyOPaiycVKpoyAlh7Xpac7OCG0z5gFX
TSAJLu7+ECteZbKLZqal2V1bh5odTv39yRh8lax8m4LcJ2rhGgN0zfAgjGvhkAr6
Kk2+1tqNwr/NCO07WncKYIBvJRtLrIzKlAc6ZkJD2YdYGb98Xl5ffK5/aPXD0whI
JjylLe7AzRSm6ht6wDP7q3A7U7Gmq/FcmTm1rdsxbu0vCUm0oSENFcWFL5ULw7pK
LAfThq36AOW3v8c2zCu3dek8s8nbFiPcnzWj3Wnj5bBEnr20LBrsqIkTUhkfaco7
o7Wxk4hXNLSj30ntvx7WcATOhE3nqhZXRASbzicjKsLShSHR5KCb6OtBI0T+hZzI
7cwAjICMctzXYJP2WnjJWa6NNTQs+sFozf3YzxnY9pH5oMYFCTGZPMXaruq0EiKO
zGv/pcTimb544wIDAQABo4HlMIHiMAkGA1UdEwQCMAAwHQYDVR0OBBYEFPz42n7p
APr7kR/1nfdwgEmOSsUEMGYGA1UdIwRfMF2AFGzrx6oe36wdwwvdFZTRmKwrewwq
oS+kLTArMSkwJwYDVQQDDCB0aW55LWF1dGgtaGFjayBBbnNpYmxlIGxvY2FsIFBL
SYIUfUjCoSDdGXnumukMc1C9nEEnYZwwEwYDVR0lBAwwCgYIKwYBBQUHAwIwCwYD
VR0PBAQDAgeAMCwGA1UdEQQlMCOCCWxvY2FsaG9zdIcEfwAAAYcQAAAAAAAAAAAA
AAAAAAAAATANBgkqhkiG9w0BAQwFAAOCAgEAZCx5uaznfg9Jbv6DtMNRrmYB4Slt
ZsB35tDqxzAd2gf0Gk+dOMFEnKubASbkySgtO5OkKNEb6D4q2qupU05hEPbA4bQq
b7Xv2H6M5/ZFKDJQT8ornJ+49btfOKBBO3ZwxcOWzwDQ4ukcZKji4QqiA6sdqyHd
B8z3XQBTD3rH05T8T+QdJwnVPe5+uxnL3jhBWILk0uGMYzB5FtqqamBc4Si8GWp3
gJg8M58NX8cWkgXfClKXujPE1aL9w1WjhoYFcOGhGr2UnQRq4ujtqkdOmBujVxxd
9higcR4CcMXsqz8NmeoaAVqL5AOBtXf7v7hPWxmaenKY0VXA0tP/lLtBLbw+bQoB
FXhOUHAd/BkdAhk8vCO3zRH4vXX9y8LIcbyeYcJsCQ+pSTRKl2wRy0WWAb7VN3gQ
cJqxHDXUH5xfdl/JmscajIw6O45tfVI8eizeHI/ezuF8FezLFHhfqVfF5zzJvwud
bwH10Kgkhwh/mBZAJz77Lvo30sCxUztnyefIOOF33bj3GK83bILAg8XR//h022Ht
NYIfUTxvY0T0YW5Y7dk7I2eLkyZNwDRDWuXroTSDkjiXKS2ZYYe04rex6Z689ibm
uONjVrx7SN8I+BDxm3TNBgnd07j5pIGuYwNNgt6RmOT667MONaiH5oc9ZbVeXill
RWiubs+1SJB8O+U=
-----END CERTIFICATE-----
